; Function Attrs: mustprogress nofree norecurse nosync nounwind willreturn memory(argmem: read) uwtable
define hidden i64 @_ZNK2cv5gimpl16FluidFilterAgent22linesReadAndnextWindowEm(ptr noundef nonnull readonly align 8 captures(none) dereferenceable(364) %0, i64 %1) unnamed_addr #9 align 2 {
  %3 = getelementptr inbounds nuw i8, ptr %0, i64 12
  %4 = getelementptr inbounds nuw i8, ptr %0, i64 352
  %5 = load i32, ptr %4, align 8, !tbaa !186
  %6 = getelementptr inbounds nuw i8, ptr %0, i64 356
  %7 = load i32, ptr %6, align 4, !tbaa !154
  %8 = load i32, ptr %3, align 4, !tbaa !189
  %9 = add i32 %7, %8
  %10 = sub i32 %5, %9
  %.sroa.speculated = tail call i32 @llvm.smin.i32(i32 %10, i32 %8)
  %11 = getelementptr inbounds nuw i8, ptr %0, i64 360
  %12 = load i32, ptr %11, align 8, !tbaa !187
  %13 = add nsw i32 %12, -1
  %14 = add nsw i32 %13, %.sroa.speculated
  %.sroa.2.0.insert.ext.i = zext i32 %14 to i64
  %.sroa.2.0.insert.shift.i = shl nuw i64 %.sroa.2.0.insert.ext.i, 32
  %.sroa.0.0.insert.ext.i = zext i32 %8 to i64
  %.sroa.0.0.insert.insert.i = or disjoint i64 %.sroa.2.0.insert.shift.i, %.sroa.0.0.insert.ext.i
  ret i64 %.sroa.0.0.insert.insert.i
}